target datalayout = "e-m:e-p270:32:32-p271:32:32-p272:64:64-i64:64-i128:128-f80:128-n8:16:32:64-S128"
target triple = "x86_64-unknown-linux-gnu"

%struct.UStringSearch = type { ptr, %struct.UPattern, ptr, ptr, ptr, ptr, ptr, i8, i32, i32, i32, i8 }
%struct.UPattern = type { ptr, i32, i32, ptr, [256 x i32], i32, ptr, [256 x i64], i8, i8 }
%struct.USearch = type { ptr, i32, i8, i8, i16, ptr, ptr, i32, i32, i8, i8 }

; Function Attrs: mustprogress nounwind uwtable
define internal noundef signext i8 @_ZL9U_FAILURE10UErrorCode(i32 noundef %code) #1 {
entry:
  %code.addr = alloca i32, align 4
  store i32 %code, ptr %code.addr, align 4
  %0 = load i32, ptr %code.addr, align 4
  %cmp = icmp sgt i32 %0, 0
  %conv = zext i1 %cmp to i8
  ret i8 %conv
}

; Function Attrs: mustprogress uwtable
define i32 @usearch_getMatchedText_75(ptr noundef %strsrch, ptr noundef %result, i32 noundef %resultCapacity, ptr noundef %status) #0 {
entry:
  %retval = alloca i32, align 4
  %strsrch.addr = alloca ptr, align 8
  %result.addr = alloca ptr, align 8
  %resultCapacity.addr = alloca i32, align 4
  %status.addr = alloca ptr, align 8
  %copylength = alloca i32, align 4
  %copyindex = alloca i32, align 4
  store ptr %strsrch, ptr %strsrch.addr, align 8
  store ptr %result, ptr %result.addr, align 8
  store i32 %resultCapacity, ptr %resultCapacity.addr, align 4
  store ptr %status, ptr %status.addr, align 8
  %0 = load ptr, ptr %status.addr, align 8
  %1 = load i32, ptr %0, align 4
  %call = call noundef signext i8 @_ZL9U_FAILURE10UErrorCode(i32 noundef %1)
  %tobool = icmp ne i8 %call, 0
  br i1 %tobool, label %if.then, label %if.end

if.then:                                          ; preds = %entry
  store i32 -1, ptr %retval, align 4
  br label %return

if.end:                                           ; preds = %entry
  %2 = load ptr, ptr %strsrch.addr, align 8
  %cmp = icmp eq ptr %2, null
  br i1 %cmp, label %if.then5, label %lor.lhs.false

lor.lhs.false:                                    ; preds = %if.end
  %3 = load i32, ptr %resultCapacity.addr, align 4
  %cmp1 = icmp slt i32 %3, 0
  br i1 %cmp1, label %if.then5, label %lor.lhs.false2

lor.lhs.false2:                                   ; preds = %lor.lhs.false
  %4 = load i32, ptr %resultCapacity.addr, align 4
  %cmp3 = icmp sgt i32 %4, 0
  br i1 %cmp3, label %land.lhs.true, label %if.end6

land.lhs.true:                                    ; preds = %lor.lhs.false2
  %5 = load ptr, ptr %result.addr, align 8
  %cmp4 = icmp eq ptr %5, null
  br i1 %cmp4, label %if.then5, label %if.end6

if.then5:                                         ; preds = %land.lhs.true, %lor.lhs.false, %if.end
  %6 = load ptr, ptr %status.addr, align 8
  store i32 1, ptr %6, align 4
  store i32 -1, ptr %retval, align 4
  br label %return

if.end6:                                          ; preds = %land.lhs.true, %lor.lhs.false2
  %7 = load ptr, ptr %strsrch.addr, align 8
  %search = getelementptr inbounds %struct.UStringSearch, ptr %7, i32 0, i32 0
  %8 = load ptr, ptr %search, align 8
  %matchedLength = getelementptr inbounds %struct.USearch, ptr %8, i32 0, i32 8
  %9 = load i32, ptr %matchedLength, align 4
  store i32 %9, ptr %copylength, align 4
  %10 = load ptr, ptr %strsrch.addr, align 8
  %search7 = getelementptr inbounds %struct.UStringSearch, ptr %10, i32 0, i32 0
  %11 = load ptr, ptr %search7, align 8
  %matchedIndex = getelementptr inbounds %struct.USearch, ptr %11, i32 0, i32 7
  %12 = load i32, ptr %matchedIndex, align 8
  store i32 %12, ptr %copyindex, align 4
  %13 = load i32, ptr %copyindex, align 4
  %cmp8 = icmp eq i32 %13, -1
  br i1 %cmp8, label %if.then9, label %if.end11

if.then9:                                         ; preds = %if.end6
  %14 = load ptr, ptr %result.addr, align 8
  %15 = load i32, ptr %resultCapacity.addr, align 4
  %16 = load ptr, ptr %status.addr, align 8
  %call10 = call i32 @u_terminateUChars_75(ptr noundef %14, i32 noundef %15, i32 noundef 0, ptr noundef %16)
  store i32 -1, ptr %retval, align 4
  br label %return

if.end11:                                         ; preds = %if.end6
  %17 = load i32, ptr %resultCapacity.addr, align 4
  %18 = load i32, ptr %copylength, align 4
  %cmp12 = icmp slt i32 %17, %18
  br i1 %cmp12, label %if.then13, label %if.end14

if.then13:                                        ; preds = %if.end11
  %19 = load i32, ptr %resultCapacity.addr, align 4
  store i32 %19, ptr %copylength, align 4
  br label %if.end14

if.end14:                                         ; preds = %if.then13, %if.end11
  %20 = load i32, ptr %copylength, align 4
  %cmp15 = icmp sgt i32 %20, 0
  br i1 %cmp15, label %if.then16, label %if.end18

if.then16:                                        ; preds = %if.end14
  br label %do.body

do.body:                                          ; preds = %if.then16
  %21 = load ptr, ptr %result.addr, align 8
  %22 = load ptr, ptr %strsrch.addr, align 8
  %search17 = getelementptr inbounds %struct.UStringSearch, ptr %22, i32 0, i32 0
  %23 = load ptr, ptr %search17, align 8
  %text = getelementptr inbounds %struct.USearch, ptr %23, i32 0, i32 0
  %24 = load ptr, ptr %text, align 8
  %25 = load i32, ptr %copyindex, align 4
  %idx.ext = sext i32 %25 to i64
  %add.ptr = getelementptr inbounds i16, ptr %24, i64 %idx.ext
  %26 = load i32, ptr %copylength, align 4
  %conv = sext i32 %26 to i64
  %mul = mul i64 %conv, 2
  call void @llvm.memcpy.p0.p0.i64(ptr align 2 %21, ptr align 2 %add.ptr, i64 %mul, i1 false)
  br label %do.end

do.end:                                           ; preds = %do.body
  br label %if.end18

if.end18:                                         ; preds = %do.end, %if.end14
  %27 = load ptr, ptr %result.addr, align 8
  %28 = load i32, ptr %resultCapacity.addr, align 4
  %29 = load ptr, ptr %strsrch.addr, align 8
  %search19 = getelementptr inbounds %struct.UStringSearch, ptr %29, i32 0, i32 0
  %30 = load ptr, ptr %search19, align 8
  %matchedLength20 = getelementptr inbounds %struct.USearch, ptr %30, i32 0, i32 8
  %31 = load i32, ptr %matchedLength20, align 4
  %32 = load ptr, ptr %status.addr, align 8
  %call21 = call i32 @u_terminateUChars_75(ptr noundef %27, i32 noundef %28, i32 noundef %31, ptr noundef %32)
  store i32 %call21, ptr %retval, align 4
  br label %return

return:                                           ; preds = %if.end18, %if.then9, %if.then5, %if.then
  %33 = load i32, ptr %retval, align 4
  ret i32 %33
}