; Function Attrs: mustprogress uwtable
define i32 @usearch_getMatchedText_75(ptr noundef readonly %strsrch, ptr noundef %result, i32 noundef %resultCapacity, ptr noundef %status) local_unnamed_addr #0 {
entry:
  %0 = load i32, ptr %status, align 4
  %cmp.i = icmp slt i32 %0, 1
  br i1 %cmp.i, label %if.end, label %return

if.end:                                           ; preds = %entry
  %cmp = icmp eq ptr %strsrch, null
  %cmp1 = icmp slt i32 %resultCapacity, 0
  %or.cond = or i1 %cmp, %cmp1
  br i1 %or.cond, label %if.then5, label %lor.lhs.false2

lor.lhs.false2:                                   ; preds = %if.end
  %cmp3 = icmp ne i32 %resultCapacity, 0
  %cmp4 = icmp eq ptr %result, null
  %or.cond1 = and i1 %cmp4, %cmp3
  br i1 %or.cond1, label %if.then5, label %if.end6

if.then5:                                         ; preds = %lor.lhs.false2, %if.end
  store i32 1, ptr %status, align 4
  br label %return

if.end6:                                          ; preds = %lor.lhs.false2
  %1 = load ptr, ptr %strsrch, align 8
  %matchedIndex = getelementptr inbounds i8, ptr %1, i64 32
  %2 = load i32, ptr %matchedIndex, align 8
  %cmp8 = icmp eq i32 %2, -1
  br i1 %cmp8, label %if.then9, label %if.end11

if.then9:                                         ; preds = %if.end6
  %call10 = tail call i32 @u_terminateUChars_75(ptr noundef %result, i32 noundef %resultCapacity, i32 noundef 0, ptr noundef nonnull %status)
  br label %return

if.end11:                                         ; preds = %if.end6
  %matchedLength = getelementptr inbounds i8, ptr %1, i64 36
  %3 = load i32, ptr %matchedLength, align 4
  %spec.select = tail call i32 @llvm.smin.i32(i32 %3, i32 %resultCapacity)
  %cmp15 = icmp sgt i32 %spec.select, 0
  br i1 %cmp15, label %do.body, label %if.end18

do.body:                                          ; preds = %if.end11
  %4 = load ptr, ptr %1, align 8
  %idx.ext = sext i32 %2 to i64
  %add.ptr = getelementptr inbounds i16, ptr %4, i64 %idx.ext
  %5 = shl nuw i32 %spec.select, 1
  %mul = zext i32 %5 to i64
  tail call void @llvm.memcpy.p0.p0.i64(ptr align 2 %result, ptr align 2 %add.ptr, i64 %mul, i1 false)
  %.pre = load ptr, ptr %strsrch, align 8
  %matchedLength20.phi.trans.insert = getelementptr inbounds i8, ptr %.pre, i64 36
  %.pre21 = load i32, ptr %matchedLength20.phi.trans.insert, align 4
  br label %if.end18

if.end18:                                         ; preds = %do.body, %if.end11
  %6 = phi i32 [ %.pre21, %do.body ], [ %3, %if.end11 ]
  %call21 = tail call i32 @u_terminateUChars_75(ptr noundef %result, i32 noundef %resultCapacity, i32 noundef %6, ptr noundef nonnull %status)
  br label %return

return:                                           ; preds = %entry, %if.end18, %if.then9, %if.then5
  %retval.0 = phi i32 [ -1, %if.then5 ], [ -1, %if.then9 ], [ %call21, %if.end18 ], [ -1, %entry ]
  ret i32 %retval.0
}